; Function Attrs: mustprogress uwtable
define noundef i32 @_ZNK6casadi12SparsityCast7eval_sxEPPKNS_6SXElemEPPS1_PxS5_(ptr noundef nonnull align 8 dereferenceable(64) %0, ptr nocapture noundef readonly %1, ptr nocapture noundef readonly %2, ptr nocapture readnone %3, ptr nocapture readnone %4) unnamed_addr #3 align 2 {
  %6 = load ptr, ptr %1, align 8
  %7 = load ptr, ptr %2, align 8
  %.not.i = icmp eq ptr %6, %7
  br i1 %.not.i, label %_ZNK6casadi12SparsityCast8eval_genINS_6SXElemEEEiPPKT_PPS3_PxS7_.exit, label %8

8:                                                ; preds = %5
  %9 = load ptr, ptr %0, align 8
  %10 = getelementptr inbounds i8, ptr %9, i64 352
  %11 = load ptr, ptr %10, align 8
  %12 = tail call noundef nonnull align 8 dereferenceable(8) ptr %11(ptr noundef nonnull align 8 dereferenceable(64) %0, i64 noundef 0)
  %13 = tail call noundef i64 @_ZNK6casadi8Sparsity3nnzEv(ptr noundef nonnull align 8 dereferenceable(8) %12)
  %14 = icmp sgt i64 %13, 0
  br i1 %14, label %.lr.ph.i.i.i.i.i.preheader.i, label %_ZNK6casadi12SparsityCast8eval_genINS_6SXElemEEEiPPKT_PPS3_PxS7_.exit

.lr.ph.i.i.i.i.i.preheader.i:                     ; preds = %8
  %15 = load ptr, ptr %2, align 8
  br label %.lr.ph.i.i.i.i.i.i

.lr.ph.i.i.i.i.i.i:                               ; preds = %.lr.ph.i.i.i.i.i.i, %.lr.ph.i.i.i.i.i.preheader.i
  %.012.i.i.i.i.i.i = phi i64 [ %19, %.lr.ph.i.i.i.i.i.i ], [ %13, %.lr.ph.i.i.i.i.i.preheader.i ]
  %.0811.i.i.i.i.i.i = phi ptr [ %18, %.lr.ph.i.i.i.i.i.i ], [ %15, %.lr.ph.i.i.i.i.i.preheader.i ]
  %.0910.i.i.i.i.i.i = phi ptr [ %17, %.lr.ph.i.i.i.i.i.i ], [ %6, %.lr.ph.i.i.i.i.i.preheader.i ]
  %16 = tail call noundef nonnull align 8 dereferenceable(8) ptr @_ZN6casadi6SXElemaSERKS0_(ptr noundef nonnull align 8 dereferenceable(8) %.0811.i.i.i.i.i.i, ptr noundef nonnull align 8 dereferenceable(8) %.0910.i.i.i.i.i.i)
  %17 = getelementptr inbounds i8, ptr %.0910.i.i.i.i.i.i, i64 8
  %18 = getelementptr inbounds i8, ptr %.0811.i.i.i.i.i.i, i64 8
  %19 = add nsw i64 %.012.i.i.i.i.i.i, -1
  %20 = icmp ugt i64 %.012.i.i.i.i.i.i, 1
  br i1 %20, label %.lr.ph.i.i.i.i.i.i, label %_ZNK6casadi12SparsityCast8eval_genINS_6SXElemEEEiPPKT_PPS3_PxS7_.exit, !llvm.loop !9

_ZNK6casadi12SparsityCast8eval_genINS_6SXElemEEEiPPKT_PPS3_PxS7_.exit: ; preds = %.lr.ph.i.i.i.i.i.i, %5, %8
  ret i32 0
}